; Function Attrs: nounwind uwtable
define hidden i64 @je_pa_shard_time_until_deferred_work(ptr noundef %0, ptr noundef %1) local_unnamed_addr #0 {
  %3 = getelementptr inbounds nuw i8, ptr %1, i64 24
  %4 = getelementptr inbounds nuw i8, ptr %1, i64 72
  %5 = load ptr, ptr %4, align 8, !tbaa !66
  %6 = tail call i64 %5(ptr noundef %0, ptr noundef nonnull %3) #4
  %7 = icmp eq i64 %6, 0
  br i1 %7, label %17, label %8

8:                                                ; preds = %2
  %9 = getelementptr inbounds nuw i8, ptr %1, i64 16
  %10 = load atomic i8, ptr %9 monotonic, align 1
  %11 = trunc i8 %10 to i1
  br i1 %11, label %12, label %17

12:                                               ; preds = %8
  %13 = getelementptr inbounds nuw i8, ptr %1, i64 62384
  %14 = getelementptr inbounds nuw i8, ptr %1, i64 62432
  %15 = load ptr, ptr %14, align 8, !tbaa !66
  %16 = tail call i64 %15(ptr noundef %0, ptr noundef nonnull %13) #4
  %spec.select = tail call i64 @llvm.umin.i64(i64 %16, i64 %6)
  br label %17

17:                                               ; preds = %8, %12, %2
  %.0 = phi i64 [ 0, %2 ], [ %spec.select, %12 ], [ %6, %8 ]
  ret i64 %.0
}